target datalayout = "e-m:e-p270:32:32-p271:32:32-p272:64:64-i64:64-i128:128-f80:128-n8:16:32:64-S128"
target triple = "x86_64-pc-linux-gnu"

; Function Attrs: nounwind uwtable
define internal i32 @strtoi_lim(ptr noundef %0, ptr noundef %1, i32 noundef %2, i32 noundef %3) #0 {
  %5 = alloca ptr, align 8
  %6 = alloca ptr, align 8
  %7 = alloca i32, align 4
  %8 = alloca i32, align 4
  %9 = alloca i32, align 4
  %10 = alloca ptr, align 8
  %11 = alloca i32, align 4
  store ptr %0, ptr %5, align 8, !tbaa !15
  store ptr %1, ptr %6, align 8, !tbaa !65
  store i32 %2, ptr %7, align 4, !tbaa !11
  store i32 %3, ptr %8, align 4, !tbaa !11
  call void @llvm.lifetime.start.p0(i64 4, ptr %9) #10
  store i32 0, ptr %9, align 4, !tbaa !11
  call void @llvm.lifetime.start.p0(i64 8, ptr %10) #10
  call void @llvm.lifetime.start.p0(i64 4, ptr %11) #10
  %12 = load ptr, ptr %5, align 8, !tbaa !15
  store ptr %12, ptr %10, align 8, !tbaa !15
  %13 = load i32, ptr %8, align 4, !tbaa !11
  %14 = icmp sgt i32 %13, 10
  br i1 %14, label %15, label %17

15:                                               ; preds = %4
  %16 = load i32, ptr %8, align 4, !tbaa !11
  br label %18

17:                                               ; preds = %4
  br label %18

18:                                               ; preds = %17, %15
  %19 = phi i32 [ %16, %15 ], [ 10, %17 ]
  store i32 %19, ptr %11, align 4, !tbaa !11
  br label %20

20:                                               ; preds = %49, %18
  %21 = load i32, ptr %9, align 4, !tbaa !11
  %22 = mul nsw i32 %21, 10
  %23 = load i32, ptr %8, align 4, !tbaa !11
  %24 = icmp sle i32 %22, %23
  br i1 %24, label %25, label %38

25:                                               ; preds = %20
  %26 = load i32, ptr %11, align 4, !tbaa !11
  %27 = icmp ne i32 %26, 0
  br i1 %27, label %28, label %38

28:                                               ; preds = %25
  %29 = load ptr, ptr %10, align 8, !tbaa !15
  %30 = load i8, ptr %29, align 1, !tbaa !46
  %31 = sext i8 %30 to i32
  %32 = icmp sge i32 %31, 48
  br i1 %32, label %33, label %38

33:                                               ; preds = %28
  %34 = load ptr, ptr %10, align 8, !tbaa !15
  %35 = load i8, ptr %34, align 1, !tbaa !46
  %36 = sext i8 %35 to i32
  %37 = icmp sle i32 %36, 57
  br label %38

38:                                               ; preds = %33, %28, %25, %20
  %39 = phi i1 [ false, %28 ], [ false, %25 ], [ false, %20 ], [ %37, %33 ]
  br i1 %39, label %40, label %54

40:                                               ; preds = %38
  %41 = load i32, ptr %9, align 4, !tbaa !11
  %42 = mul nsw i32 %41, 10
  store i32 %42, ptr %9, align 4, !tbaa !11
  %43 = load ptr, ptr %10, align 8, !tbaa !15
  %44 = load i8, ptr %43, align 1, !tbaa !46
  %45 = sext i8 %44 to i32
  %46 = sub nsw i32 %45, 48
  %47 = load i32, ptr %9, align 4, !tbaa !11
  %48 = add nsw i32 %47, %46
  store i32 %48, ptr %9, align 4, !tbaa !11
  br label %49

49:                                               ; preds = %40
  %50 = load ptr, ptr %10, align 8, !tbaa !15
  %51 = getelementptr inbounds nuw i8, ptr %50, i32 1
  store ptr %51, ptr %10, align 8, !tbaa !15
  %52 = load i32, ptr %11, align 4, !tbaa !11
  %53 = sdiv i32 %52, 10
  store i32 %53, ptr %11, align 4, !tbaa !11
  br label %20, !llvm.loop !75

54:                                               ; preds = %38
  %55 = load ptr, ptr %10, align 8, !tbaa !15
  %56 = load ptr, ptr %5, align 8, !tbaa !15
  %57 = icmp eq ptr %55, %56
  br i1 %57, label %58, label %59

58:                                               ; preds = %54
  store i32 -1, ptr %9, align 4, !tbaa !11
  br label %69

59:                                               ; preds = %54
  %60 = load i32, ptr %9, align 4, !tbaa !11
  %61 = load i32, ptr %7, align 4, !tbaa !11
  %62 = icmp slt i32 %60, %61
  br i1 %62, label %67, label %63

63:                                               ; preds = %59
  %64 = load i32, ptr %9, align 4, !tbaa !11
  %65 = load i32, ptr %8, align 4, !tbaa !11
  %66 = icmp sgt i32 %64, %65
  br i1 %66, label %67, label %68

67:                                               ; preds = %63, %59
  store i32 -2, ptr %9, align 4, !tbaa !11
  br label %68

68:                                               ; preds = %67, %63
  br label %69

69:                                               ; preds = %68, %58
  %70 = load ptr, ptr %10, align 8, !tbaa !15
  %71 = load ptr, ptr %6, align 8, !tbaa !65
  store ptr %70, ptr %71, align 8, !tbaa !15
  %72 = load i32, ptr %9, align 4, !tbaa !11
  call void @llvm.lifetime.end.p0(i64 4, ptr %11) #10
  call void @llvm.lifetime.end.p0(i64 8, ptr %10) #10
  call void @llvm.lifetime.end.p0(i64 4, ptr %9) #10
  ret i32 %72
}