; Function Attrs: nofree norecurse nosync nounwind memory(argmem: readwrite) uwtable
define internal fastcc range(i32 -2, 4096) i32 @strtoi_lim(ptr noundef %0, ptr noundef nonnull writeonly captures(none) %1, i32 noundef range(i32 0, 1584) %2, i32 noundef range(i32 12, 4096) %3) unnamed_addr #12 {
  %5 = load i8, ptr %0, align 1, !tbaa !28
  %6 = add i8 %5, -48
  %or.cond2631 = icmp ult i8 %6, 10
  br i1 %or.cond2631, label %.lr.ph, label %.critedge

7:                                                ; preds = %.lr.ph
  %8 = udiv i32 %.03032, 10
  %9 = load i8, ptr %15, align 1, !tbaa !28
  %10 = add i8 %9, -48
  %or.cond26 = icmp ult i8 %10, 10
  br i1 %or.cond26, label %.lr.ph, label %.critedge, !llvm.loop !54

.lr.ph:                                           ; preds = %4, %7
  %11 = phi i8 [ %10, %7 ], [ %6, %4 ]
  %.0222933 = phi ptr [ %15, %7 ], [ %0, %4 ]
  %.03032 = phi i32 [ %8, %7 ], [ %3, %4 ]
  %12 = phi i32 [ %16, %7 ], [ 0, %4 ]
  %13 = zext nneg i8 %11 to i32
  %14 = add nsw i32 %12, %13
  %15 = getelementptr inbounds nuw i8, ptr %.0222933, i64 1
  %16 = mul nsw i32 %14, 10
  %17 = icmp sle i32 %16, %3
  %18 = add nsw i32 %.03032, -10
  %19 = icmp ult i32 %18, -19
  %or.cond = select i1 %17, i1 %19, i1 false
  br i1 %or.cond, label %7, label %.critedge, !llvm.loop !54

.critedge:                                        ; preds = %.lr.ph, %7, %4
  %.023.lcssa = phi i32 [ 0, %4 ], [ %14, %7 ], [ %14, %.lr.ph ]
  %.022.lcssa = phi ptr [ %0, %4 ], [ %15, %7 ], [ %15, %.lr.ph ]
  %20 = icmp eq ptr %.022.lcssa, %0
  %21 = icmp slt i32 %.023.lcssa, %2
  %22 = icmp sgt i32 %.023.lcssa, %3
  %or.cond27 = or i1 %21, %22
  %spec.select = select i1 %or.cond27, i32 -2, i32 %.023.lcssa
  %.1 = select i1 %20, i32 -1, i32 %spec.select
  store ptr %.022.lcssa, ptr %1, align 8, !tbaa !32
  ret i32 %.1
}